; ModuleID = '5/1240.c'
source_filename = "5/1240.c"
target datalayout = "e-m:e-p270:32:32-p271:32:32-p272:64:64-i64:64-f80:128-n8:16:32:64-S128"
target triple = "x86_64-pc-linux-gnu"

@.str = private unnamed_addr constant [6 x i8] c"%lf%c\00", align 1
@.str.1 = private unnamed_addr constant [6 x i8] c"error\00", align 1
@.str.2 = private unnamed_addr constant [4 x i8] c"yes\00", align 1
@.str.3 = private unnamed_addr constant [3 x i8] c"no\00", align 1

; Function Attrs: noinline nounwind uwtable
define dso_local i32 @main() #0 {
  %1 = alloca i32, align 4
  %2 = alloca double, align 8
  %3 = alloca [2 x [501 x i8]], align 16
  %4 = alloca i8, align 1
  %5 = alloca i8, align 1
  %6 = alloca i8, align 1
  %7 = alloca i32, align 4
  %8 = alloca i32, align 4
  %9 = alloca i32, align 4
  %10 = alloca i32, align 4
  %11 = alloca i32, align 4
  store i32 0, i32* %1, align 4
  store i8 0, i8* %4, align 1
  store i8 0, i8* %6, align 1
  %12 = call i32 (i8*, ...) @__isoc99_scanf(i8* getelementptr inbounds ([6 x i8], [6 x i8]* @.str, i64 0, i64 0), double* %2, i8* %5)
  %13 = getelementptr inbounds [2 x [501 x i8]], [2 x [501 x i8]]* %3, i64 0, i64 0
  %14 = getelementptr inbounds [501 x i8], [501 x i8]* %13, i64 0, i64 0
  %15 = call i32 (i8*, ...) bitcast (i32 (...)* @gets to i32 (i8*, ...)*)(i8* %14)
  %16 = getelementptr inbounds [2 x [501 x i8]], [2 x [501 x i8]]* %3, i64 0, i64 1
  %17 = getelementptr inbounds [501 x i8], [501 x i8]* %16, i64 0, i64 0
  %18 = call i32 (i8*, ...) bitcast (i32 (...)* @gets to i32 (i8*, ...)*)(i8* %17)
  %19 = getelementptr inbounds [2 x [501 x i8]], [2 x [501 x i8]]* %3, i64 0, i64 0
  %20 = getelementptr inbounds [501 x i8], [501 x i8]* %19, i64 0, i64 0
  %21 = call i64 @strlen(i8* %20) #3
  %22 = trunc i64 %21 to i32
  store i32 %22, i32* %7, align 4
  %23 = getelementptr inbounds [2 x [501 x i8]], [2 x [501 x i8]]* %3, i64 0, i64 1
  %24 = getelementptr inbounds [501 x i8], [501 x i8]* %23, i64 0, i64 0
  %25 = call i64 @strlen(i8* %24) #3
  %26 = trunc i64 %25 to i32
  store i32 %26, i32* %8, align 4
  %27 = load i32, i32* %7, align 4
  %28 = load i32, i32* %8, align 4
  %29 = icmp ne i32 %27, %28
  br i1 %29, label %30, label %32

30:                                               ; preds = %0
  %31 = call i32 (i8*, ...) @printf(i8* getelementptr inbounds ([6 x i8], [6 x i8]* @.str.1, i64 0, i64 0))
  br label %140

32:                                               ; preds = %0
  store i32 0, i32* %9, align 4
  br label %33

33:                                               ; preds = %89, %32
  %34 = load i32, i32* %9, align 4
  %35 = load i32, i32* %7, align 4
  %36 = icmp slt i32 %34, %35
  br i1 %36, label %37, label %92

37:                                               ; preds = %33
  store i32 0, i32* %10, align 4
  br label %38

38:                                               ; preds = %85, %37
  %39 = load i32, i32* %10, align 4
  %40 = icmp slt i32 %39, 2
  br i1 %40, label %41, label %88

41:                                               ; preds = %38
  %42 = load i32, i32* %10, align 4
  %43 = sext i32 %42 to i64
  %44 = getelementptr inbounds [2 x [501 x i8]], [2 x [501 x i8]]* %3, i64 0, i64 %43
  %45 = load i32, i32* %9, align 4
  %46 = sext i32 %45 to i64
  %47 = getelementptr inbounds [501 x i8], [501 x i8]* %44, i64 0, i64 %46
  %48 = load i8, i8* %47, align 1
  %49 = sext i8 %48 to i32
  %50 = icmp ne i32 %49, 65
  br i1 %50, label %51, label %84

51:                                               ; preds = %41
  %52 = load i32, i32* %10, align 4
  %53 = sext i32 %52 to i64
  %54 = getelementptr inbounds [2 x [501 x i8]], [2 x [501 x i8]]* %3, i64 0, i64 %53
  %55 = load i32, i32* %9, align 4
  %56 = sext i32 %55 to i64
  %57 = getelementptr inbounds [501 x i8], [501 x i8]* %54, i64 0, i64 %56
  %58 = load i8, i8* %57, align 1
  %59 = sext i8 %58 to i32
  %60 = icmp ne i32 %59, 84
  br i1 %60, label %61, label %84

61:                                               ; preds = %51
  %62 = load i32, i32* %10, align 4
  %63 = sext i32 %62 to i64
  %64 = getelementptr inbounds [2 x [501 x i8]], [2 x [501 x i8]]* %3, i64 0, i64 %63
  %65 = load i32, i32* %9, align 4
  %66 = sext i32 %65 to i64
  %67 = getelementptr inbounds [501 x i8], [501 x i8]* %64, i64 0, i64 %66
  %68 = load i8, i8* %67, align 1
  %69 = sext i8 %68 to i32
  %70 = icmp ne i32 %69, 71
  br i1 %70, label %71, label %84

71:                                               ; preds = %61
  %72 = load i32, i32* %10, align 4
  %73 = sext i32 %72 to i64
  %74 = getelementptr inbounds [2 x [501 x i8]], [2 x [501 x i8]]* %3, i64 0, i64 %73
  %75 = load i32, i32* %9, align 4
  %76 = sext i32 %75 to i64
  %77 = getelementptr inbounds [501 x i8], [501 x i8]* %74, i64 0, i64 %76
  %78 = load i8, i8* %77, align 1
  %79 = sext i8 %78 to i32
  %80 = icmp ne i32 %79, 67
  br i1 %80, label %81, label %84

81:                                               ; preds = %71
  %82 = load i8, i8* %6, align 1
  %83 = add i8 %82, 1
  store i8 %83, i8* %6, align 1
  br label %84

84:                                               ; preds = %81, %71, %61, %51, %41
  br label %85

85:                                               ; preds = %84
  %86 = load i32, i32* %10, align 4
  %87 = add nsw i32 %86, 1
  store i32 %87, i32* %10, align 4
  br label %38

88:                                               ; preds = %38
  br label %89

89:                                               ; preds = %88
  %90 = load i32, i32* %9, align 4
  %91 = add nsw i32 %90, 1
  store i32 %91, i32* %9, align 4
  br label %33

92:                                               ; preds = %33
  %93 = load i8, i8* %6, align 1
  %94 = sext i8 %93 to i32
  %95 = icmp ne i32 %94, 0
  br i1 %95, label %96, label %98

96:                                               ; preds = %92
  %97 = call i32 (i8*, ...) @printf(i8* getelementptr inbounds ([6 x i8], [6 x i8]* @.str.1, i64 0, i64 0))
  br label %139

98:                                               ; preds = %92
  store i32 0, i32* %11, align 4
  br label %99

99:                                               ; preds = %121, %98
  %100 = load i32, i32* %11, align 4
  %101 = load i32, i32* %7, align 4
  %102 = icmp slt i32 %100, %101
  br i1 %102, label %103, label %124

103:                                              ; preds = %99
  %104 = getelementptr inbounds [2 x [501 x i8]], [2 x [501 x i8]]* %3, i64 0, i64 0
  %105 = load i32, i32* %11, align 4
  %106 = sext i32 %105 to i64
  %107 = getelementptr inbounds [501 x i8], [501 x i8]* %104, i64 0, i64 %106
  %108 = load i8, i8* %107, align 1
  %109 = sext i8 %108 to i32
  %110 = getelementptr inbounds [2 x [501 x i8]], [2 x [501 x i8]]* %3, i64 0, i64 1
  %111 = load i32, i32* %11, align 4
  %112 = sext i32 %111 to i64
  %113 = getelementptr inbounds [501 x i8], [501 x i8]* %110, i64 0, i64 %112
  %114 = load i8, i8* %113, align 1
  %115 = sext i8 %114 to i32
  %116 = icmp eq i32 %109, %115
  br i1 %116, label %117, label %120

117:                                              ; preds = %103
  %118 = load i8, i8* %4, align 1
  %119 = add i8 %118, 1
  store i8 %119, i8* %4, align 1
  br label %120

120:                                              ; preds = %117, %103
  br label %121

121:                                              ; preds = %120
  %122 = load i32, i32* %11, align 4
  %123 = add nsw i32 %122, 1
  store i32 %123, i32* %11, align 4
  br label %99

124:                                              ; preds = %99
  %125 = load i8, i8* %4, align 1
  %126 = sext i8 %125 to i32
  %127 = sitofp i32 %126 to double
  %128 = fmul double 1.000000e+00, %127
  %129 = load i32, i32* %7, align 4
  %130 = sitofp i32 %129 to double
  %131 = fdiv double %128, %130
  %132 = load double, double* %2, align 8
  %133 = fcmp ogt double %131, %132
  br i1 %133, label %134, label %136

134:                                              ; preds = %124
  %135 = call i32 (i8*, ...) @printf(i8* getelementptr inbounds ([4 x i8], [4 x i8]* @.str.2, i64 0, i64 0))
  br label %138

136:                                              ; preds = %124
  %137 = call i32 (i8*, ...) @printf(i8* getelementptr inbounds ([3 x i8], [3 x i8]* @.str.3, i64 0, i64 0))
  br label %138

138:                                              ; preds = %136, %134
  br label %139

139:                                              ; preds = %138, %96
  br label %140

140:                                              ; preds = %139, %30
  ret i32 0
}

declare dso_local i32 @__isoc99_scanf(i8*, ...) #1

declare dso_local i32 @gets(...) #1

; Function Attrs: nounwind readonly
declare dso_local i64 @strlen(i8*) #2

declare dso_local i32 @printf(i8*, ...) #1


!llvm.module.flags = !{!0}
!llvm.ident = !{!1}

!0 = !{i32 1, !"wchar_size", i32 4}
!1 = !{!"clang version 10.0.0-4ubuntu1 "}
